target datalayout = "e-m:e-p270:32:32-p271:32:32-p272:64:64-i64:64-i128:128-f80:128-n8:16:32:64-S128"
target triple = "x86_64-pc-linux-gnu"

@.str.99 = private unnamed_addr constant [30 x i8] c"cli_egg_close: Invalid args.\0A\00", align 1

; Function Attrs: nounwind uwtable
define void @cli_egg_close(ptr noundef %0) #0 {
  %2 = alloca ptr, align 8
  %3 = alloca ptr, align 8
  store ptr %0, ptr %2, align 8
  store ptr null, ptr %3, align 8
  %4 = load ptr, ptr %2, align 8
  %5 = icmp ne ptr %4, null
  br i1 %5, label %7, label %6

6:                                                ; preds = %1
  call void (ptr, ...) @cli_errmsg(ptr noundef @.str.99)
  br label %10

7:                                                ; preds = %1
  %8 = load ptr, ptr %2, align 8
  store ptr %8, ptr %3, align 8
  %9 = load ptr, ptr %3, align 8
  call void @egg_free_egg_handle(ptr noundef %9)
  br label %10

10:                                               ; preds = %7, %6
  ret void
}