; Function Attrs: nounwind uwtable
define void @cli_egg_close(ptr noundef %0) local_unnamed_addr #1 {
  %.not = icmp eq ptr %0, null
  br i1 %.not, label %2, label %3

2:                                                ; preds = %1
  tail call void (ptr, ...) @cli_errmsg(ptr noundef nonnull @.str.99) #11
  br label %4

3:                                                ; preds = %1
  tail call fastcc void @egg_free_egg_handle(ptr noundef nonnull %0)
  br label %4

4:                                                ; preds = %3, %2
  ret void
}